target datalayout = "e-m:e-p270:32:32-p271:32:32-p272:64:64-i64:64-i128:128-f80:128-n8:16:32:64-S128"
target triple = "x86_64-pc-linux-gnu"

%"class.Imf_3_4::IDManifest" = type { %"class.std::vector" }
%"class.std::vector" = type { %"struct.std::_Vector_base" }
%"struct.std::_Vector_base" = type { %"struct.std::_Vector_base<Imf_3_4::IDManifest::ChannelGroupManifest, std::allocator<Imf_3_4::IDManifest::ChannelGroupManifest>>::_Vector_impl" }
%"struct.std::_Vector_base<Imf_3_4::IDManifest::ChannelGroupManifest, std::allocator<Imf_3_4::IDManifest::ChannelGroupManifest>>::_Vector_impl" = type { %"struct.std::_Vector_base<Imf_3_4::IDManifest::ChannelGroupManifest, std::allocator<Imf_3_4::IDManifest::ChannelGroupManifest>>::_Vector_impl_data" }
%"struct.std::_Vector_base<Imf_3_4::IDManifest::ChannelGroupManifest, std::allocator<Imf_3_4::IDManifest::ChannelGroupManifest>>::_Vector_impl_data" = type { ptr, ptr, ptr }

; Function Attrs: mustprogress nounwind uwtable
define linkonce_odr hidden noundef i64 @_ZNKSt6vectorIN7Imf_3_410IDManifest20ChannelGroupManifestESaIS2_EE4sizeEv(ptr noundef nonnull align 8 dereferenceable(24) %0) #5 comdat align 2 {
  %2 = alloca ptr, align 8
  store ptr %0, ptr %2, align 8, !tbaa !14
  %3 = load ptr, ptr %2, align 8
  %4 = getelementptr inbounds nuw %"struct.std::_Vector_base", ptr %3, i32 0, i32 0
  %5 = getelementptr inbounds nuw %"struct.std::_Vector_base<Imf_3_4::IDManifest::ChannelGroupManifest, std::allocator<Imf_3_4::IDManifest::ChannelGroupManifest>>::_Vector_impl_data", ptr %4, i32 0, i32 1
  %6 = load ptr, ptr %5, align 8, !tbaa !41
  %7 = getelementptr inbounds nuw %"struct.std::_Vector_base", ptr %3, i32 0, i32 0
  %8 = getelementptr inbounds nuw %"struct.std::_Vector_base<Imf_3_4::IDManifest::ChannelGroupManifest, std::allocator<Imf_3_4::IDManifest::ChannelGroupManifest>>::_Vector_impl_data", ptr %7, i32 0, i32 0
  %9 = load ptr, ptr %8, align 8, !tbaa !39
  %10 = ptrtoint ptr %6 to i64
  %11 = ptrtoint ptr %9 to i64
  %12 = sub i64 %10, %11
  %13 = sdiv exact i64 %12, 208
  ret i64 %13
}

; Function Attrs: mustprogress nounwind uwtable
define noundef i64 @_ZNK7Imf_3_410IDManifest4sizeEv(ptr noundef nonnull align 8 dereferenceable(24) %0) #5 align 2 {
  %2 = alloca ptr, align 8
  store ptr %0, ptr %2, align 8, !tbaa !12
  %3 = load ptr, ptr %2, align 8
  %4 = getelementptr inbounds nuw %"class.Imf_3_4::IDManifest", ptr %3, i32 0, i32 0
  %5 = call noundef i64 @_ZNKSt6vectorIN7Imf_3_410IDManifest20ChannelGroupManifestESaIS2_EE4sizeEv(ptr noundef nonnull align 8 dereferenceable(24) %4) #3
  ret i64 %5
}