; Function Attrs: mustprogress nofree norecurse nosync nounwind willreturn memory(argmem: read) uwtable
define noundef range(i64 -44343134792571037, 44343134792571038) i64 @_ZNK7Imf_3_410IDManifest4sizeEv(ptr noundef nonnull readonly align 8 captures(none) dereferenceable(24) %0) local_unnamed_addr #12 align 2 {
  %2 = getelementptr inbounds nuw i8, ptr %0, i64 8
  %3 = load ptr, ptr %2, align 8, !tbaa !40
  %4 = load ptr, ptr %0, align 8, !tbaa !37
  %5 = ptrtoint ptr %3 to i64
  %6 = ptrtoint ptr %4 to i64
  %7 = sub i64 %5, %6
  %8 = sdiv exact i64 %7, 208
  ret i64 %8
}